; Function Attrs: mustprogress nounwind uwtable
define void @_ZN5osgeo4proj9operation21ConcatenatedOperationD2Ev(ptr noundef nonnull align 8 dereferenceable(80) %0) unnamed_addr #0 align 2 personality ptr @__gxx_personality_v0 {
  %2 = getelementptr inbounds i8, ptr %0, i64 72
  %3 = load ptr, ptr %2, align 8
  %.not.i = icmp eq ptr %3, null
  br i1 %.not.i, label %_ZNSt10unique_ptrIN5osgeo4proj9operation21ConcatenatedOperation7PrivateESt14default_deleteIS4_EED2Ev.exit, label %4

4:                                                ; preds = %1
  tail call void @_ZNKSt14default_deleteIN5osgeo4proj9operation21ConcatenatedOperation7PrivateEEclEPS4_(ptr noundef nonnull align 1 dereferenceable(1) %2, ptr noundef nonnull %3)
  br label %_ZNSt10unique_ptrIN5osgeo4proj9operation21ConcatenatedOperation7PrivateESt14default_deleteIS4_EED2Ev.exit

_ZNSt10unique_ptrIN5osgeo4proj9operation21ConcatenatedOperation7PrivateESt14default_deleteIS4_EED2Ev.exit: ; preds = %1, %4
  store ptr null, ptr %2, align 8
  tail call void @_ZN5osgeo4proj9operation19CoordinateOperationD2Ev(ptr noundef nonnull align 8 dereferenceable(72) %0) #19
  ret void
}